target datalayout = "e-m:e-p270:32:32-p271:32:32-p272:64:64-i64:64-i128:128-f80:128-n8:16:32:64-S128"
target triple = "x86_64-pc-linux-gnu"

%union.SourceSpan = type { i64 }
%struct.Signature_ = type <{ %struct.CalleeAttributes, i16, i8, i32, i32, [4 x i8], ptr }>
%struct.CalleeAttributes = type { i8 }
%struct.Decl_ = type { ptr, ptr, %union.SourceSpan, i64, %union.anon, i32, %union.anon.0, i64, ptr, ptr, ptr, %union.anon.1 }
%union.anon = type { ptr }
%union.anon.0 = type { i16 }
%union.anon.1 = type { %struct.FuncDecl }
%struct.FuncDecl = type { i32, [4 x i8], %struct.Signature_, i32, i32, %union.anon.8 }
%union.anon.8 = type { %struct.anon.9 }
%struct.anon.9 = type { i16, %union.anon.10 }
%union.anon.10 = type { ptr }
%struct.VHeader_ = type { i32, i32, [0 x i8] }
%struct.Type_ = type { i32, ptr, ptr, ptr, %union.anon.85, ptr, ptr, %union.anon.87 }
%union.anon.85 = type { ptr }
%union.anon.87 = type { %struct.TypeFunction }
%struct.TypeFunction = type { ptr, ptr, ptr }
%struct.TypeInfo_ = type { i16, ptr, %union.SourceSpan, %union.anon.56 }
%union.anon.56 = type { %struct.anon.57 }
%struct.anon.57 = type { ptr, ptr }
%struct.anon.2 = type { ptr, ptr, %union.anon.3 }
%union.anon.3 = type { %struct.BitStructDecl }
%struct.BitStructDecl = type { ptr, ptr, i8 }

; Function Attrs: nounwind uwtable
define internal ptr @sema_interface_method_by_name(ptr noundef %0, ptr noundef %1) #0 {
  %3 = alloca i32, align 4
  %4 = alloca ptr, align 8
  %5 = alloca ptr, align 8
  %6 = alloca i32, align 4
  %7 = alloca ptr, align 8
  %8 = alloca ptr, align 8
  %9 = alloca ptr, align 8
  %10 = alloca ptr, align 8
  %11 = alloca ptr, align 8
  %12 = alloca ptr, align 8
  %13 = alloca i32, align 4
  %14 = alloca i32, align 4
  %15 = alloca ptr, align 8
  %16 = alloca ptr, align 8
  %17 = alloca i32, align 4
  %18 = alloca i32, align 4
  %19 = alloca ptr, align 8
  %20 = alloca ptr, align 8
  store ptr %0, ptr %10, align 8
  store ptr %1, ptr %11, align 8
  %21 = load ptr, ptr %10, align 8
  %22 = getelementptr inbounds %struct.Decl_, ptr %21, i32 0, i32 11
  %23 = getelementptr inbounds %struct.anon.2, ptr %22, i32 0, i32 2
  %24 = load ptr, ptr %23, align 8
  store ptr %24, ptr %12, align 8
  %25 = load ptr, ptr %12, align 8
  store ptr %25, ptr %4, align 8
  %26 = load ptr, ptr %4, align 8
  %27 = icmp ne ptr %26, null
  br i1 %27, label %29, label %28

28:                                               ; preds = %2
  store i32 0, ptr %3, align 4
  br label %34

29:                                               ; preds = %2
  %30 = load ptr, ptr %4, align 8
  store ptr %30, ptr %5, align 8
  %31 = load ptr, ptr %5, align 8
  %32 = getelementptr inbounds %struct.VHeader_, ptr %31, i64 -1
  %33 = load i32, ptr %32, align 4
  store i32 %33, ptr %3, align 4
  br label %34

34:                                               ; preds = %29, %28
  %35 = load i32, ptr %3, align 4
  store i32 %35, ptr %13, align 4
  store i32 0, ptr %14, align 4
  br label %36

36:                                               ; preds = %54, %34
  %37 = load i32, ptr %14, align 4
  %38 = load i32, ptr %13, align 4
  %39 = icmp ult i32 %37, %38
  br i1 %39, label %40, label %57

40:                                               ; preds = %36
  %41 = load ptr, ptr %12, align 8
  %42 = load i32, ptr %14, align 4
  %43 = zext i32 %42 to i64
  %44 = getelementptr inbounds ptr, ptr %41, i64 %43
  %45 = load ptr, ptr %44, align 8
  store ptr %45, ptr %15, align 8
  %46 = load ptr, ptr %15, align 8
  %47 = getelementptr inbounds %struct.Decl_, ptr %46, i32 0, i32 0
  %48 = load ptr, ptr %47, align 8
  %49 = load ptr, ptr %11, align 8
  %50 = icmp eq ptr %48, %49
  br i1 %50, label %51, label %53

51:                                               ; preds = %40
  %52 = load ptr, ptr %15, align 8
  store ptr %52, ptr %9, align 8
  br label %103

53:                                               ; preds = %40
  br label %54

54:                                               ; preds = %53
  %55 = load i32, ptr %14, align 4
  %56 = add i32 %55, 1
  store i32 %56, ptr %14, align 4
  br label %36, !llvm.loop !48

57:                                               ; preds = %36
  br label %58

58:                                               ; preds = %57
  br label %59

59:                                               ; preds = %58
  %60 = load ptr, ptr %10, align 8
  %61 = getelementptr inbounds %struct.Decl_, ptr %60, i32 0, i32 11
  %62 = getelementptr inbounds %struct.anon.2, ptr %61, i32 0, i32 0
  %63 = load ptr, ptr %62, align 8
  store ptr %63, ptr %16, align 8
  %64 = load ptr, ptr %16, align 8
  store ptr %64, ptr %7, align 8
  %65 = load ptr, ptr %7, align 8
  %66 = icmp ne ptr %65, null
  br i1 %66, label %68, label %67

67:                                               ; preds = %59
  store i32 0, ptr %6, align 4
  br label %73

68:                                               ; preds = %59
  %69 = load ptr, ptr %7, align 8
  store ptr %69, ptr %8, align 8
  %70 = load ptr, ptr %8, align 8
  %71 = getelementptr inbounds %struct.VHeader_, ptr %70, i64 -1
  %72 = load i32, ptr %71, align 4
  store i32 %72, ptr %6, align 4
  br label %73

73:                                               ; preds = %68, %67
  %74 = load i32, ptr %6, align 4
  store i32 %74, ptr %17, align 4
  store i32 0, ptr %18, align 4
  br label %75

75:                                               ; preds = %97, %73
  %76 = load i32, ptr %18, align 4
  %77 = load i32, ptr %17, align 4
  %78 = icmp ult i32 %76, %77
  br i1 %78, label %79, label %100

79:                                               ; preds = %75
  %80 = load ptr, ptr %16, align 8
  %81 = load i32, ptr %18, align 4
  %82 = zext i32 %81 to i64
  %83 = getelementptr inbounds ptr, ptr %80, i64 %82
  %84 = load ptr, ptr %83, align 8
  store ptr %84, ptr %19, align 8
  %85 = load ptr, ptr %19, align 8
  %86 = getelementptr inbounds %struct.TypeInfo_, ptr %85, i32 0, i32 1
  %87 = load ptr, ptr %86, align 8
  %88 = getelementptr inbounds %struct.Type_, ptr %87, i32 0, i32 7
  %89 = load ptr, ptr %88, align 8
  %90 = load ptr, ptr %11, align 8
  %91 = call ptr @sema_interface_method_by_name(ptr noundef %89, ptr noundef %90)
  store ptr %91, ptr %20, align 8
  %92 = load ptr, ptr %20, align 8
  %93 = icmp ne ptr %92, null
  br i1 %93, label %94, label %96

94:                                               ; preds = %79
  %95 = load ptr, ptr %20, align 8
  store ptr %95, ptr %9, align 8
  br label %103

96:                                               ; preds = %79
  br label %97

97:                                               ; preds = %96
  %98 = load i32, ptr %18, align 4
  %99 = add i32 %98, 1
  store i32 %99, ptr %18, align 4
  br label %75, !llvm.loop !49

100:                                              ; preds = %75
  br label %101

101:                                              ; preds = %100
  br label %102

102:                                              ; preds = %101
  store ptr null, ptr %9, align 8
  br label %103

103:                                              ; preds = %102, %94, %51
  %104 = load ptr, ptr %9, align 8
  ret ptr %104
}