; Function Attrs: nofree nosync nounwind memory(read, inaccessiblemem: none) uwtable
define internal fastcc ptr @sema_interface_method_by_name(ptr nocapture noundef readonly %0, ptr noundef readnone %1) unnamed_addr #5 {
  %3 = getelementptr inbounds i8, ptr %0, i64 80
  %4 = getelementptr inbounds i8, ptr %0, i64 96
  %5 = load ptr, ptr %4, align 8
  %.not = icmp eq ptr %5, null
  br i1 %.not, label %._crit_edge, label %6

6:                                                ; preds = %2
  %7 = getelementptr inbounds i8, ptr %5, i64 -8
  %8 = load i32, ptr %7, align 4
  %.not45 = icmp eq i32 %8, 0
  br i1 %.not45, label %._crit_edge, label %.lr.ph.preheader

.lr.ph.preheader:                                 ; preds = %6
  %wide.trip.count = zext i32 %8 to i64
  br label %.lr.ph

9:                                                ; preds = %.lr.ph
  %indvars.iv.next = add nuw nsw i64 %indvars.iv, 1
  %exitcond.not = icmp eq i64 %indvars.iv.next, %wide.trip.count
  br i1 %exitcond.not, label %._crit_edge, label %.lr.ph, !llvm.loop !48

.lr.ph:                                           ; preds = %.lr.ph.preheader, %9
  %indvars.iv = phi i64 [ 0, %.lr.ph.preheader ], [ %indvars.iv.next, %9 ]
  %10 = getelementptr inbounds ptr, ptr %5, i64 %indvars.iv
  %11 = load ptr, ptr %10, align 8
  %12 = load ptr, ptr %11, align 8
  %13 = icmp eq ptr %12, %1
  br i1 %13, label %.loopexit, label %9

._crit_edge:                                      ; preds = %9, %2, %6
  %14 = load ptr, ptr %3, align 8
  %.not36 = icmp eq ptr %14, null
  br i1 %.not36, label %.loopexit, label %15

15:                                               ; preds = %._crit_edge
  %16 = getelementptr inbounds i8, ptr %14, i64 -8
  %17 = load i32, ptr %16, align 4
  %.not46 = icmp eq i32 %17, 0
  br i1 %.not46, label %.loopexit, label %.lr.ph42.preheader

.lr.ph42.preheader:                               ; preds = %15
  %wide.trip.count53 = zext i32 %17 to i64
  br label %.lr.ph42

18:                                               ; preds = %.lr.ph42
  %indvars.iv.next51 = add nuw nsw i64 %indvars.iv50, 1
  %exitcond54.not = icmp eq i64 %indvars.iv.next51, %wide.trip.count53
  br i1 %exitcond54.not, label %.loopexit, label %.lr.ph42, !llvm.loop !49

.lr.ph42:                                         ; preds = %.lr.ph42.preheader, %18
  %indvars.iv50 = phi i64 [ 0, %.lr.ph42.preheader ], [ %indvars.iv.next51, %18 ]
  %19 = getelementptr inbounds ptr, ptr %14, i64 %indvars.iv50
  %20 = load ptr, ptr %19, align 8
  %21 = getelementptr inbounds i8, ptr %20, i64 8
  %22 = load ptr, ptr %21, align 8
  %23 = getelementptr inbounds i8, ptr %22, i64 56
  %24 = load ptr, ptr %23, align 8
  %25 = tail call fastcc ptr @sema_interface_method_by_name(ptr noundef %24, ptr noundef %1)
  %.not37 = icmp eq ptr %25, null
  br i1 %.not37, label %18, label %.loopexit

.loopexit:                                        ; preds = %.lr.ph, %.lr.ph42, %18, %._crit_edge, %15
  %.031 = phi ptr [ null, %15 ], [ null, %._crit_edge ], [ %25, %.lr.ph42 ], [ null, %18 ], [ %11, %.lr.ph ]
  ret ptr %.031
}